Certificate:
    Data:
        Version: 3 (0x2)
        Serial Number: 1 (0x1)
    Signature Algorithm: sha256WithRSAEncryption
        Issuer: CN=devcert
        Validity
            Not Before: Jun 11 16:45:32 2020 GMT
            Not After : Sep 14 16:45:32 2022 GMT
        Subject: CN=localhost
        Subject Public Key Info:
            Public Key Algorithm: rsaEncryption
                Public-Key: (2048 bit)
                Modulus:
                    00:b6:9c:68:96:bc:f2:c9:89:8a:23:ed:94:3f:57:
                    a4:4c:6e:30:75:5e:b7:ee:3c:35:ce:d2:2d:b2:b6:
                    be:9f:96:d7:23:2e:0f:08:ae:fe:3e:5e:cc:0a:8c:
                    69:59:59:2e:8b:07:d7:8c:8f:94:f3:24:e4:cf:fa:
                    e5:2b:f2:dd:8e:a9:2e:c5:83:99:11:02:34:02:73:
                    51:a8:cb:89:10:59:25:43:42:14:dc:9d:78:a8:a6:
                    12:53:04:40:8a:19:72:b3:1d:a5:7c:12:19:b8:96:
                    c4:cd:ff:61:15:95:d4:2b:60:16:fd:39:e4:32:66:
                    e6:e4:27:a4:7c:eb:20:41:4f:97:7c:cb:78:69:19:
                    f5:06:21:90:74:27:11:9b:30:e2:ee:eb:48:a5:b1:
                    60:15:a8:7b:09:01:47:d8:58:77:11:2e:20:8d:26:
                    0b:d7:e7:fe:7c:63:ec:ef:aa:ae:ac:75:3a:47:b2:
                    0a:91:cf:ce:e3:e0:db:cc:9e:0e:67:4a:e0:1e:c3:
                    d5:29:c2:90:53:36:0f:2d:f8:cb:f1:7c:b3:1b:77:
                    5f:92:dd:40:e2:7d:79:da:7b:74:4a:f4:d4:b5:ee:
                    8a:cf:d7:92:65:ba:37:6a:ee:e1:c9:f6:6c:6c:45:
                    dc:83:02:6d:b7:60:75:52:6b:71:c4:1d:f9:35:99:
                    98:6b
                Exponent: 65537 (0x10001)
        X509v3 extensions:
            X509v3 Basic Constraints: critical
                CA:FALSE
            X509v3 Subject Key Identifier: 
                9E:82:04:B7:FE:04:32:E4:EE:10:EE:5F:13:92:27:90:F5:5B:E6:F2
            X509v3 Authority Key Identifier: 
                keyid:6F:41:9B:7F:FC:B5:6E:92:E7:CD:79:2E:59:B5:CA:C7:00:03:09:1B
                DirName:/CN=devcert
                serial:9D:C3:8B:D5:22:F7:FF:7B

            X509v3 Key Usage: critical
                Digital Signature, Key Encipherment
            X509v3 Extended Key Usage: 
                TLS Web Server Authentication
            X509v3 Subject Alternative Name: 
                DNS:localhost, DNS:*.localhost
    Signature Algorithm: sha256WithRSAEncryption
         0b:e2:e9:61:da:dc:dd:66:15:bd:74:d1:aa:ae:6b:5e:dc:39:
         5d:1d:51:40:40:8c:bf:e6:9a:3a:b4:e3:aa:36:68:aa:4b:fb:
         a7:c5:9c:14:ed:90:b1:11:9b:63:10:f5:48:27:52:c6:fd:a7:
         ef:b8:71:83:72:3d:df:13:be:80:59:1d:68:52:38:24:dd:d3:
         22:6c:e7:1b:27:2c:d3:c7:04:0e:ec:5c:30:ff:d5:75:ee:c0:
         00:43:10:f4:c8:ba:d0:52:0a:3b:78:78:25:d6:e4:6d:78:ee:
         8b:42:5e:bf:25:18:3e:e6:35:aa:1b:68:c8:18:58:37:47:87:
         d2:a0:16:e3:6b:5a:90:32:ea:fd:92:5b:dc:c7:1d:5f:1d:ee:
         3f:8b:74:dc:3f:65:47:2e:89:a0:3a:d5:f8:73:0a:a6:cc:ec:
         3a:f3:d4:2f:b1:fd:8d:89:78:31:84:51:45:d0:9e:69:e3:22:
         45:71:e9:1f:d5:68:77:84:27:a5:4e:20:92:f7:7b:d8:82:a1:
         61:f1:e0:3f:f6:ef:aa:c3:b7:c3:59:4d:04:b5:9e:36:87:26:
         7d:31:2e:fd:b6:11:74:1f:82:46:29:e2:ba:c8:13:3f:7f:94:
         2b:25:1f:3e:78:b1:88:14:6c:d6:a5:d6:09:a1:50:42:af:a5:
         9b:26:f8:ad
-----BEGIN CERTIFICATE-----
MIIDXjCCAkagAwIBAgIBATANBgkqhkiG9w0BAQsFADASMRAwDgYDVQQDDAdkZXZj
ZXJ0MB4XDTIwMDYxMTE2NDUzMloXDTIyMDkxNDE2NDUzMlowFDESMBAGA1UEAwwJ
bG9jYWxob3N0MIIBIjANBgkqhkiG9w0BAQEFAAOCAQ8AMIIBCgKCAQEAtpxolrzy
yYmKI+2UP1ekTG4wdV637jw1ztItsra+n5bXIy4PCK7+Pl7MCoxpWVkuiwfXjI+U
8yTkz/rlK/LdjqkuxYOZEQI0AnNRqMuJEFklQ0IU3J14qKYSUwRAihlysx2lfBIZ
uJbEzf9hFZXUK2AW/TnkMmbm5CekfOsgQU+XfMt4aRn1BiGQdCcRmzDi7utIpbFg
Fah7CQFH2Fh3ES4gjSYL1+f+fGPs76qurHU6R7IKkc/O4+DbzJ4OZ0rgHsPVKcKQ
UzYPLfjL8XyzG3dfkt1A4n152nt0SvTUte6Kz9eSZbo3au7hyfZsbEXcgwJtt2B1
UmtxxB35NZmYawIDAQABo4G8MIG5MAwGA1UdEwEB/wQCMAAwHQYDVR0OBBYEFJ6C
BLf+BDLk7hDuXxOSJ5D1W+byMEIGA1UdIwQ7MDmAFG9Bm3/8tW6S5815Llm1yscA
AwkboRakFDASMRAwDgYDVQQDDAdkZXZjZXJ0ggkAncOL1SL3/3swDgYDVR0PAQH/
BAQDAgWgMBMGA1UdJQQMMAoGCCsGAQUFBwMBMCEGA1UdEQQaMBiCCWxvY2FsaG9z
dIILKi5sb2NhbGhvc3QwDQYJKoZIhvcNAQELBQADggEBAAvi6WHa3N1mFb100aqu
a17cOV0dUUBAjL/mmjq046o2aKpL+6fFnBTtkLERm2MQ9UgnUsb9p++4cYNyPd8T
voBZHWhSOCTd0yJs5xsnLNPHBA7sXDD/1XXuwABDEPTIutBSCjt4eCXW5G147otC
Xr8lGD7mNaobaMgYWDdHh9KgFuNrWpAy6v2SW9zHHV8d7j+LdNw/ZUcuiaA61fhz
CqbM7Drz1C+x/Y2JeDGEUUXQnmnjIkVx6R/VaHeEJ6VOIJL3e9iCoWHx4D/276rD
t8NZTQS1njaHJn0xLv22EXQfgkYp4rrIEz9/lCslHz54sYgUbNal1gmhUEKvpZsm
+K0=
-----END CERTIFICATE-----
